; ModuleID = '30/1939.c'
source_filename = "30/1939.c"
target datalayout = "e-m:e-p270:32:32-p271:32:32-p272:64:64-i64:64-f80:128-n8:16:32:64-S128"
target triple = "x86_64-pc-linux-gnu"

@.str = private unnamed_addr constant [3 x i8] c"%d\00", align 1

; Function Attrs: noinline nounwind uwtable
define dso_local i32 @main() #0 {
  %1 = alloca i32, align 4
  %2 = alloca i32, align 4
  %3 = alloca i32, align 4
  %4 = alloca i32, align 4
  %5 = alloca i32, align 4
  %6 = alloca i32, align 4
  store i32 0, i32* %1, align 4
  %7 = call i32 (i8*, ...) @__isoc99_scanf(i8* getelementptr inbounds ([3 x i8], [3 x i8]* @.str, i64 0, i64 0), i32* %2)
  store i32 0, i32* %4, align 4
  %8 = load i32, i32* %2, align 4
  %9 = icmp slt i32 %8, 70
  br i1 %9, label %10, label %35

10:                                               ; preds = %0
  store i32 1, i32* %3, align 4
  br label %11

11:                                               ; preds = %31, %10
  %12 = load i32, i32* %3, align 4
  %13 = load i32, i32* %2, align 4
  %14 = icmp sle i32 %12, %13
  br i1 %14, label %15, label %34

15:                                               ; preds = %11
  %16 = load i32, i32* %3, align 4
  %17 = sub nsw i32 %16, 7
  %18 = srem i32 %17, 10
  %19 = icmp ne i32 %18, 0
  br i1 %19, label %20, label %30

20:                                               ; preds = %15
  %21 = load i32, i32* %3, align 4
  %22 = srem i32 %21, 7
  %23 = icmp ne i32 %22, 0
  br i1 %23, label %24, label %30

24:                                               ; preds = %20
  %25 = load i32, i32* %3, align 4
  %26 = load i32, i32* %3, align 4
  %27 = mul nsw i32 %25, %26
  %28 = load i32, i32* %4, align 4
  %29 = add nsw i32 %28, %27
  store i32 %29, i32* %4, align 4
  br label %30

30:                                               ; preds = %24, %20, %15
  br label %31

31:                                               ; preds = %30
  %32 = load i32, i32* %3, align 4
  %33 = add nsw i32 %32, 1
  store i32 %33, i32* %3, align 4
  br label %11

34:                                               ; preds = %11
  br label %120

35:                                               ; preds = %0
  %36 = load i32, i32* %2, align 4
  %37 = icmp sge i32 %36, 70
  br i1 %37, label %38, label %66

38:                                               ; preds = %35
  %39 = load i32, i32* %2, align 4
  %40 = icmp slt i32 %39, 80
  br i1 %40, label %41, label %66

41:                                               ; preds = %38
  store i32 69, i32* %5, align 4
  store i32 1, i32* %3, align 4
  br label %42

42:                                               ; preds = %62, %41
  %43 = load i32, i32* %3, align 4
  %44 = load i32, i32* %5, align 4
  %45 = icmp sle i32 %43, %44
  br i1 %45, label %46, label %65

46:                                               ; preds = %42
  %47 = load i32, i32* %3, align 4
  %48 = sub nsw i32 %47, 7
  %49 = srem i32 %48, 10
  %50 = icmp ne i32 %49, 0
  br i1 %50, label %51, label %61

51:                                               ; preds = %46
  %52 = load i32, i32* %3, align 4
  %53 = srem i32 %52, 7
  %54 = icmp ne i32 %53, 0
  br i1 %54, label %55, label %61

55:                                               ; preds = %51
  %56 = load i32, i32* %3, align 4
  %57 = load i32, i32* %3, align 4
  %58 = mul nsw i32 %56, %57
  %59 = load i32, i32* %4, align 4
  %60 = add nsw i32 %59, %58
  store i32 %60, i32* %4, align 4
  br label %61

61:                                               ; preds = %55, %51, %46
  br label %62

62:                                               ; preds = %61
  %63 = load i32, i32* %3, align 4
  %64 = add nsw i32 %63, 1
  store i32 %64, i32* %3, align 4
  br label %42

65:                                               ; preds = %42
  br label %119

66:                                               ; preds = %38, %35
  %67 = load i32, i32* %2, align 4
  %68 = icmp sge i32 %67, 80
  br i1 %68, label %69, label %118

69:                                               ; preds = %66
  store i32 69, i32* %6, align 4
  store i32 1, i32* %3, align 4
  br label %70

70:                                               ; preds = %90, %69
  %71 = load i32, i32* %3, align 4
  %72 = load i32, i32* %6, align 4
  %73 = icmp sle i32 %71, %72
  br i1 %73, label %74, label %93

74:                                               ; preds = %70
  %75 = load i32, i32* %3, align 4
  %76 = sub nsw i32 %75, 7
  %77 = srem i32 %76, 10
  %78 = icmp ne i32 %77, 0
  br i1 %78, label %79, label %89

79:                                               ; preds = %74
  %80 = load i32, i32* %3, align 4
  %81 = srem i32 %80, 7
  %82 = icmp ne i32 %81, 0
  br i1 %82, label %83, label %89

83:                                               ; preds = %79
  %84 = load i32, i32* %3, align 4
  %85 = load i32, i32* %3, align 4
  %86 = mul nsw i32 %84, %85
  %87 = load i32, i32* %4, align 4
  %88 = add nsw i32 %87, %86
  store i32 %88, i32* %4, align 4
  br label %89

89:                                               ; preds = %83, %79, %74
  br label %90

90:                                               ; preds = %89
  %91 = load i32, i32* %3, align 4
  %92 = add nsw i32 %91, 1
  store i32 %92, i32* %3, align 4
  br label %70

93:                                               ; preds = %70
  store i32 80, i32* %3, align 4
  br label %94

94:                                               ; preds = %114, %93
  %95 = load i32, i32* %3, align 4
  %96 = load i32, i32* %2, align 4
  %97 = icmp sle i32 %95, %96
  br i1 %97, label %98, label %117

98:                                               ; preds = %94
  %99 = load i32, i32* %3, align 4
  %100 = sub nsw i32 %99, 7
  %101 = srem i32 %100, 10
  %102 = icmp ne i32 %101, 0
  br i1 %102, label %103, label %113

103:                                              ; preds = %98
  %104 = load i32, i32* %3, align 4
  %105 = srem i32 %104, 7
  %106 = icmp ne i32 %105, 0
  br i1 %106, label %107, label %113

107:                                              ; preds = %103
  %108 = load i32, i32* %3, align 4
  %109 = load i32, i32* %3, align 4
  %110 = mul nsw i32 %108, %109
  %111 = load i32, i32* %4, align 4
  %112 = add nsw i32 %111, %110
  store i32 %112, i32* %4, align 4
  br label %113

113:                                              ; preds = %107, %103, %98
  br label %114

114:                                              ; preds = %113
  %115 = load i32, i32* %3, align 4
  %116 = add nsw i32 %115, 1
  store i32 %116, i32* %3, align 4
  br label %94

117:                                              ; preds = %94
  br label %118

118:                                              ; preds = %117, %66
  br label %119

119:                                              ; preds = %118, %65
  br label %120

120:                                              ; preds = %119, %34
  %121 = load i32, i32* %4, align 4
  %122 = call i32 (i8*, ...) @printf(i8* getelementptr inbounds ([3 x i8], [3 x i8]* @.str, i64 0, i64 0), i32 %121)
  ret i32 0
}

declare dso_local i32 @__isoc99_scanf(i8*, ...) #1

declare dso_local i32 @printf(i8*, ...) #1


!llvm.module.flags = !{!0}
!llvm.ident = !{!1}

!0 = !{i32 1, !"wchar_size", i32 4}
!1 = !{!"clang version 10.0.0-4ubuntu1 "}
